target datalayout = "e-m:e-p270:32:32-p271:32:32-p272:64:64-i64:64-i128:128-f80:128-n8:16:32:64-S128"
target triple = "x86_64-pc-linux-gnu"

%struct.mp_buf = type { ptr, i64, i64 }

@.str = private unnamed_addr constant [41 x i8] c"in function mp_encode_lua_table_as_array\00", align 1

; Function Attrs: nounwind uwtable
define dso_local ptr @mp_realloc(ptr noundef %0, ptr noundef %1, i64 noundef %2, i64 noundef %3) #0 {
  %5 = alloca ptr, align 8
  %6 = alloca ptr, align 8
  %7 = alloca i64, align 8
  %8 = alloca i64, align 8
  %9 = alloca ptr, align 8
  %10 = alloca ptr, align 8
  store ptr %0, ptr %5, align 8, !tbaa !17
  store ptr %1, ptr %6, align 8, !tbaa !4
  store i64 %2, ptr %7, align 8, !tbaa !8
  store i64 %3, ptr %8, align 8, !tbaa !8
  call void @llvm.lifetime.start.p0(i64 8, ptr %9) #6
  store ptr null, ptr %9, align 8, !tbaa !4
  call void @llvm.lifetime.start.p0(i64 8, ptr %10) #6
  %11 = load ptr, ptr %5, align 8, !tbaa !17
  %12 = call ptr @lua_getallocf(ptr noundef %11, ptr noundef %10)
  store ptr %12, ptr %9, align 8, !tbaa !4
  %13 = load ptr, ptr %9, align 8, !tbaa !4
  %14 = load ptr, ptr %10, align 8, !tbaa !4
  %15 = load ptr, ptr %6, align 8, !tbaa !4
  %16 = load i64, ptr %7, align 8, !tbaa !8
  %17 = load i64, ptr %8, align 8, !tbaa !8
  %18 = call ptr %13(ptr noundef %14, ptr noundef %15, i64 noundef %16, i64 noundef %17)
  call void @llvm.lifetime.end.p0(i64 8, ptr %10) #6
  call void @llvm.lifetime.end.p0(i64 8, ptr %9) #6
  ret ptr %18
}

; Function Attrs: nounwind uwtable
define dso_local void @mp_encode_lua_table_as_array(ptr noundef %0, ptr noundef %1, i32 noundef %2) #0 {
  %4 = alloca ptr, align 8
  %5 = alloca ptr, align 8
  %6 = alloca i32, align 4
  %7 = alloca i64, align 8
  %8 = alloca i64, align 8
  store ptr %0, ptr %4, align 8, !tbaa !17
  store ptr %1, ptr %5, align 8, !tbaa !19
  store i32 %2, ptr %6, align 4, !tbaa !12
  call void @llvm.lifetime.start.p0(i64 8, ptr %7) #6
  %9 = load ptr, ptr %4, align 8, !tbaa !17
  %10 = call i64 @lua_objlen(ptr noundef %9, i32 noundef -1)
  store i64 %10, ptr %7, align 8, !tbaa !8
  call void @llvm.lifetime.start.p0(i64 8, ptr %8) #6
  %11 = load ptr, ptr %4, align 8, !tbaa !17
  %12 = load ptr, ptr %5, align 8, !tbaa !19
  %13 = load i64, ptr %7, align 8, !tbaa !8
  call void @mp_encode_array(ptr noundef %11, ptr noundef %12, i64 noundef %13)
  %14 = load ptr, ptr %4, align 8, !tbaa !17
  call void @luaL_checkstack(ptr noundef %14, i32 noundef 1, ptr noundef @.str)
  store i64 1, ptr %8, align 8, !tbaa !8
  br label %15

15:                                               ; preds = %28, %3
  %16 = load i64, ptr %8, align 8, !tbaa !8
  %17 = load i64, ptr %7, align 8, !tbaa !8
  %18 = icmp ule i64 %16, %17
  br i1 %18, label %19, label %31

19:                                               ; preds = %15
  %20 = load ptr, ptr %4, align 8, !tbaa !17
  %21 = load i64, ptr %8, align 8, !tbaa !8
  %22 = uitofp i64 %21 to double
  call void @lua_pushnumber(ptr noundef %20, double noundef %22)
  %23 = load ptr, ptr %4, align 8, !tbaa !17
  call void @lua_gettable(ptr noundef %23, i32 noundef -2)
  %24 = load ptr, ptr %4, align 8, !tbaa !17
  %25 = load ptr, ptr %5, align 8, !tbaa !19
  %26 = load i32, ptr %6, align 4, !tbaa !12
  %27 = add nsw i32 %26, 1
  call void @mp_encode_lua_type(ptr noundef %24, ptr noundef %25, i32 noundef %27)
  br label %28

28:                                               ; preds = %19
  %29 = load i64, ptr %8, align 8, !tbaa !8
  %30 = add i64 %29, 1
  store i64 %30, ptr %8, align 8, !tbaa !8
  br label %15, !llvm.loop !35

31:                                               ; preds = %15
  call void @llvm.lifetime.end.p0(i64 8, ptr %8) #6
  call void @llvm.lifetime.end.p0(i64 8, ptr %7) #6
  ret void
}

; Function Attrs: nounwind uwtable
define dso_local void @mp_encode_lua_integer(ptr noundef %0, ptr noundef %1) #0 {
  %3 = alloca ptr, align 8
  %4 = alloca ptr, align 8
  %5 = alloca i64, align 8
  store ptr %0, ptr %3, align 8, !tbaa !17
  store ptr %1, ptr %4, align 8, !tbaa !19
  call void @llvm.lifetime.start.p0(i64 8, ptr %5) #6
  %6 = load ptr, ptr %3, align 8, !tbaa !17
  %7 = call i64 @lua_tointeger(ptr noundef %6, i32 noundef -1)
  store i64 %7, ptr %5, align 8, !tbaa !8
  %8 = load ptr, ptr %3, align 8, !tbaa !17
  %9 = load ptr, ptr %4, align 8, !tbaa !19
  %10 = load i64, ptr %5, align 8, !tbaa !8
  call void @mp_encode_int(ptr noundef %8, ptr noundef %9, i64 noundef %10)
  call void @llvm.lifetime.end.p0(i64 8, ptr %5) #6
  ret void
}

; Function Attrs: nounwind uwtable
define dso_local void @mp_buf_append(ptr noundef %0, ptr noundef %1, ptr noundef %2, i64 noundef %3) #0 {
  %5 = alloca ptr, align 8
  %6 = alloca ptr, align 8
  %7 = alloca ptr, align 8
  %8 = alloca i64, align 8
  %9 = alloca i64, align 8
  store ptr %0, ptr %5, align 8, !tbaa !17
  store ptr %1, ptr %6, align 8, !tbaa !19
  store ptr %2, ptr %7, align 8, !tbaa !10
  store i64 %3, ptr %8, align 8, !tbaa !8
  %10 = load ptr, ptr %6, align 8, !tbaa !19
  %11 = getelementptr inbounds nuw %struct.mp_buf, ptr %10, i32 0, i32 2
  %12 = load i64, ptr %11, align 8, !tbaa !23
  %13 = load i64, ptr %8, align 8, !tbaa !8
  %14 = icmp ult i64 %12, %13
  br i1 %14, label %15, label %55

15:                                               ; preds = %4
  call void @llvm.lifetime.start.p0(i64 8, ptr %9) #6
  %16 = load ptr, ptr %6, align 8, !tbaa !19
  %17 = getelementptr inbounds nuw %struct.mp_buf, ptr %16, i32 0, i32 1
  %18 = load i64, ptr %17, align 8, !tbaa !24
  %19 = load i64, ptr %8, align 8, !tbaa !8
  %20 = add i64 %18, %19
  store i64 %20, ptr %9, align 8, !tbaa !8
  %21 = load i64, ptr %9, align 8, !tbaa !8
  %22 = load ptr, ptr %6, align 8, !tbaa !19
  %23 = getelementptr inbounds nuw %struct.mp_buf, ptr %22, i32 0, i32 1
  %24 = load i64, ptr %23, align 8, !tbaa !24
  %25 = icmp ult i64 %21, %24
  br i1 %25, label %29, label %26

26:                                               ; preds = %15
  %27 = load i64, ptr %9, align 8, !tbaa !8
  %28 = icmp uge i64 %27, 9223372036854775807
  br i1 %28, label %29, label %30

29:                                               ; preds = %26, %15
  call void @abort() #7
  unreachable

30:                                               ; preds = %26
  %31 = load i64, ptr %9, align 8, !tbaa !8
  %32 = mul i64 %31, 2
  store i64 %32, ptr %9, align 8, !tbaa !8
  %33 = load ptr, ptr %5, align 8, !tbaa !17
  %34 = load ptr, ptr %6, align 8, !tbaa !19
  %35 = getelementptr inbounds nuw %struct.mp_buf, ptr %34, i32 0, i32 0
  %36 = load ptr, ptr %35, align 8, !tbaa !21
  %37 = load ptr, ptr %6, align 8, !tbaa !19
  %38 = getelementptr inbounds nuw %struct.mp_buf, ptr %37, i32 0, i32 1
  %39 = load i64, ptr %38, align 8, !tbaa !24
  %40 = load ptr, ptr %6, align 8, !tbaa !19
  %41 = getelementptr inbounds nuw %struct.mp_buf, ptr %40, i32 0, i32 2
  %42 = load i64, ptr %41, align 8, !tbaa !23
  %43 = add i64 %39, %42
  %44 = load i64, ptr %9, align 8, !tbaa !8
  %45 = call ptr @mp_realloc(ptr noundef %33, ptr noundef %36, i64 noundef %43, i64 noundef %44)
  %46 = load ptr, ptr %6, align 8, !tbaa !19
  %47 = getelementptr inbounds nuw %struct.mp_buf, ptr %46, i32 0, i32 0
  store ptr %45, ptr %47, align 8, !tbaa !21
  %48 = load i64, ptr %9, align 8, !tbaa !8
  %49 = load ptr, ptr %6, align 8, !tbaa !19
  %50 = getelementptr inbounds nuw %struct.mp_buf, ptr %49, i32 0, i32 1
  %51 = load i64, ptr %50, align 8, !tbaa !24
  %52 = sub i64 %48, %51
  %53 = load ptr, ptr %6, align 8, !tbaa !19
  %54 = getelementptr inbounds nuw %struct.mp_buf, ptr %53, i32 0, i32 2
  store i64 %52, ptr %54, align 8, !tbaa !23
  call void @llvm.lifetime.end.p0(i64 8, ptr %9) #6
  br label %55

55:                                               ; preds = %30, %4
  %56 = load ptr, ptr %6, align 8, !tbaa !19
  %57 = getelementptr inbounds nuw %struct.mp_buf, ptr %56, i32 0, i32 0
  %58 = load ptr, ptr %57, align 8, !tbaa !21
  %59 = load ptr, ptr %6, align 8, !tbaa !19
  %60 = getelementptr inbounds nuw %struct.mp_buf, ptr %59, i32 0, i32 1
  %61 = load i64, ptr %60, align 8, !tbaa !24
  %62 = getelementptr inbounds nuw i8, ptr %58, i64 %61
  %63 = load ptr, ptr %7, align 8, !tbaa !10
  %64 = load i64, ptr %8, align 8, !tbaa !8
  call void @llvm.memcpy.p0.p0.i64(ptr align 1 %62, ptr align 1 %63, i64 %64, i1 false)
  %65 = load i64, ptr %8, align 8, !tbaa !8
  %66 = load ptr, ptr %6, align 8, !tbaa !19
  %67 = getelementptr inbounds nuw %struct.mp_buf, ptr %66, i32 0, i32 1
  %68 = load i64, ptr %67, align 8, !tbaa !24
  %69 = add i64 %68, %65
  store i64 %69, ptr %67, align 8, !tbaa !24
  %70 = load i64, ptr %8, align 8, !tbaa !8
  %71 = load ptr, ptr %6, align 8, !tbaa !19
  %72 = getelementptr inbounds nuw %struct.mp_buf, ptr %71, i32 0, i32 2
  %73 = load i64, ptr %72, align 8, !tbaa !23
  %74 = sub i64 %73, %70
  store i64 %74, ptr %72, align 8, !tbaa !23
  ret void
}

; Function Attrs: nounwind uwtable
define dso_local void @mp_encode_lua_null(ptr noundef %0, ptr noundef %1) #0 {
  %3 = alloca ptr, align 8
  %4 = alloca ptr, align 8
  %5 = alloca [1 x i8], align 1
  store ptr %0, ptr %3, align 8, !tbaa !17
  store ptr %1, ptr %4, align 8, !tbaa !19
  call void @llvm.lifetime.start.p0(i64 1, ptr %5) #6
  %6 = getelementptr inbounds [1 x i8], ptr %5, i64 0, i64 0
  store i8 -64, ptr %6, align 1, !tbaa !14
  %7 = load ptr, ptr %3, align 8, !tbaa !17
  %8 = load ptr, ptr %4, align 8, !tbaa !19
  %9 = getelementptr inbounds [1 x i8], ptr %5, i64 0, i64 0
  call void @mp_buf_append(ptr noundef %7, ptr noundef %8, ptr noundef %9, i64 noundef 1)
  call void @llvm.lifetime.end.p0(i64 1, ptr %5) #6
  ret void
}

; Function Attrs: nounwind uwtable
define dso_local void @mp_encode_lua_table(ptr noundef %0, ptr noundef %1, i32 noundef %2) #0 {
  %4 = alloca ptr, align 8
  %5 = alloca ptr, align 8
  %6 = alloca i32, align 4
  store ptr %0, ptr %4, align 8, !tbaa !17
  store ptr %1, ptr %5, align 8, !tbaa !19
  store i32 %2, ptr %6, align 4, !tbaa !12
  %7 = load ptr, ptr %4, align 8, !tbaa !17
  %8 = call i32 @table_is_an_array(ptr noundef %7)
  %9 = icmp ne i32 %8, 0
  br i1 %9, label %10, label %14

10:                                               ; preds = %3
  %11 = load ptr, ptr %4, align 8, !tbaa !17
  %12 = load ptr, ptr %5, align 8, !tbaa !19
  %13 = load i32, ptr %6, align 4, !tbaa !12
  call void @mp_encode_lua_table_as_array(ptr noundef %11, ptr noundef %12, i32 noundef %13)
  br label %18

14:                                               ; preds = %3
  %15 = load ptr, ptr %4, align 8, !tbaa !17
  %16 = load ptr, ptr %5, align 8, !tbaa !19
  %17 = load i32, ptr %6, align 4, !tbaa !12
  call void @mp_encode_lua_table_as_map(ptr noundef %15, ptr noundef %16, i32 noundef %17)
  br label %18

18:                                               ; preds = %14, %10
  ret void
}

; Function Attrs: nounwind uwtable
define dso_local void @mp_encode_lua_number(ptr noundef %0, ptr noundef %1) #0 {
  %3 = alloca ptr, align 8
  %4 = alloca ptr, align 8
  %5 = alloca double, align 8
  store ptr %0, ptr %3, align 8, !tbaa !17
  store ptr %1, ptr %4, align 8, !tbaa !19
  call void @llvm.lifetime.start.p0(i64 8, ptr %5) #6
  %6 = load ptr, ptr %3, align 8, !tbaa !17
  %7 = call double @lua_tonumber(ptr noundef %6, i32 noundef -1)
  store double %7, ptr %5, align 8, !tbaa !31
  %8 = load double, ptr %5, align 8, !tbaa !31
  %9 = call double @llvm.fabs.f64(double %8) #8
  %10 = fcmp oeq double %9, 0x7FF0000000000000
  %11 = bitcast double %8 to i64
  %12 = icmp slt i64 %11, 0
  %13 = select i1 %12, i32 -1, i32 1
  %14 = select i1 %10, i32 %13, i32 0
  %15 = icmp ne i32 %14, 0
  br i1 %15, label %25, label %16

16:                                               ; preds = %2
  %17 = load double, ptr %5, align 8, !tbaa !31
  %18 = fptosi double %17 to i64
  %19 = sitofp i64 %18 to double
  %20 = load double, ptr %5, align 8, !tbaa !31
  %21 = fcmp oeq double %19, %20
  br i1 %21, label %22, label %25

22:                                               ; preds = %16
  %23 = load ptr, ptr %3, align 8, !tbaa !17
  %24 = load ptr, ptr %4, align 8, !tbaa !19
  call void @mp_encode_lua_integer(ptr noundef %23, ptr noundef %24)
  br label %29

25:                                               ; preds = %16, %2
  %26 = load ptr, ptr %3, align 8, !tbaa !17
  %27 = load ptr, ptr %4, align 8, !tbaa !19
  %28 = load double, ptr %5, align 8, !tbaa !31
  call void @mp_encode_double(ptr noundef %26, ptr noundef %27, double noundef %28)
  br label %29

29:                                               ; preds = %25, %22
  call void @llvm.lifetime.end.p0(i64 8, ptr %5) #6
  ret void
}

; Function Attrs: nounwind uwtable
define dso_local void @mp_encode_lua_bool(ptr noundef %0, ptr noundef %1) #0 {
  %3 = alloca ptr, align 8
  %4 = alloca ptr, align 8
  %5 = alloca i8, align 1
  store ptr %0, ptr %3, align 8, !tbaa !17
  store ptr %1, ptr %4, align 8, !tbaa !19
  call void @llvm.lifetime.start.p0(i64 1, ptr %5) #6
  %6 = load ptr, ptr %3, align 8, !tbaa !17
  %7 = call i32 @lua_toboolean(ptr noundef %6, i32 noundef -1)
  %8 = icmp ne i32 %7, 0
  %9 = select i1 %8, i32 195, i32 194
  %10 = trunc i32 %9 to i8
  store i8 %10, ptr %5, align 1, !tbaa !14
  %11 = load ptr, ptr %3, align 8, !tbaa !17
  %12 = load ptr, ptr %4, align 8, !tbaa !19
  call void @mp_buf_append(ptr noundef %11, ptr noundef %12, ptr noundef %5, i64 noundef 1)
  call void @llvm.lifetime.end.p0(i64 1, ptr %5) #6
  ret void
}

; Function Attrs: nounwind uwtable
define dso_local void @mp_encode_lua_string(ptr noundef %0, ptr noundef %1) #0 {
  %3 = alloca ptr, align 8
  %4 = alloca ptr, align 8
  %5 = alloca i64, align 8
  %6 = alloca ptr, align 8
  store ptr %0, ptr %3, align 8, !tbaa !17
  store ptr %1, ptr %4, align 8, !tbaa !19
  call void @llvm.lifetime.start.p0(i64 8, ptr %5) #6
  call void @llvm.lifetime.start.p0(i64 8, ptr %6) #6
  %7 = load ptr, ptr %3, align 8, !tbaa !17
  %8 = call ptr @lua_tolstring(ptr noundef %7, i32 noundef -1, ptr noundef %5)
  store ptr %8, ptr %6, align 8, !tbaa !10
  %9 = load ptr, ptr %3, align 8, !tbaa !17
  %10 = load ptr, ptr %4, align 8, !tbaa !19
  %11 = load ptr, ptr %6, align 8, !tbaa !10
  %12 = load i64, ptr %5, align 8, !tbaa !8
  call void @mp_encode_bytes(ptr noundef %9, ptr noundef %10, ptr noundef %11, i64 noundef %12)
  call void @llvm.lifetime.end.p0(i64 8, ptr %6) #6
  call void @llvm.lifetime.end.p0(i64 8, ptr %5) #6
  ret void
}

; Function Attrs: nounwind uwtable
define dso_local void @mp_encode_lua_type(ptr noundef %0, ptr noundef %1, i32 noundef %2) #0 {
  %4 = alloca ptr, align 8
  %5 = alloca ptr, align 8
  %6 = alloca i32, align 4
  %7 = alloca i32, align 4
  store ptr %0, ptr %4, align 8, !tbaa !17
  store ptr %1, ptr %5, align 8, !tbaa !19
  store i32 %2, ptr %6, align 4, !tbaa !12
  call void @llvm.lifetime.start.p0(i64 4, ptr %7) #6
  %8 = load ptr, ptr %4, align 8, !tbaa !17
  %9 = call i32 @lua_type(ptr noundef %8, i32 noundef -1)
  store i32 %9, ptr %7, align 4, !tbaa !12
  %10 = load i32, ptr %7, align 4, !tbaa !12
  %11 = icmp eq i32 %10, 5
  br i1 %11, label %12, label %16

12:                                               ; preds = %3
  %13 = load i32, ptr %6, align 4, !tbaa !12
  %14 = icmp eq i32 %13, 16
  br i1 %14, label %15, label %16

15:                                               ; preds = %12
  store i32 0, ptr %7, align 4, !tbaa !12
  br label %16

16:                                               ; preds = %15, %12, %3
  %17 = load i32, ptr %7, align 4, !tbaa !12
  switch i32 %17, label %31 [
    i32 4, label %18
    i32 1, label %21
    i32 3, label %24
    i32 5, label %27
  ]

18:                                               ; preds = %16
  %19 = load ptr, ptr %4, align 8, !tbaa !17
  %20 = load ptr, ptr %5, align 8, !tbaa !19
  call void @mp_encode_lua_string(ptr noundef %19, ptr noundef %20)
  br label %34

21:                                               ; preds = %16
  %22 = load ptr, ptr %4, align 8, !tbaa !17
  %23 = load ptr, ptr %5, align 8, !tbaa !19
  call void @mp_encode_lua_bool(ptr noundef %22, ptr noundef %23)
  br label %34

24:                                               ; preds = %16
  %25 = load ptr, ptr %4, align 8, !tbaa !17
  %26 = load ptr, ptr %5, align 8, !tbaa !19
  call void @mp_encode_lua_number(ptr noundef %25, ptr noundef %26)
  br label %34

27:                                               ; preds = %16
  %28 = load ptr, ptr %4, align 8, !tbaa !17
  %29 = load ptr, ptr %5, align 8, !tbaa !19
  %30 = load i32, ptr %6, align 4, !tbaa !12
  call void @mp_encode_lua_table(ptr noundef %28, ptr noundef %29, i32 noundef %30)
  br label %34

31:                                               ; preds = %16
  %32 = load ptr, ptr %4, align 8, !tbaa !17
  %33 = load ptr, ptr %5, align 8, !tbaa !19
  call void @mp_encode_lua_null(ptr noundef %32, ptr noundef %33)
  br label %34

34:                                               ; preds = %31, %27, %24, %21, %18
  %35 = load ptr, ptr %4, align 8, !tbaa !17
  call void @lua_settop(ptr noundef %35, i32 noundef -2)
  call void @llvm.lifetime.end.p0(i64 4, ptr %7) #6
  ret void
}