; Function Attrs: nounwind uwtable
define dso_local void @mp_encode_lua_type(ptr noundef %0, ptr noundef captures(none) %1, i32 noundef %2) local_unnamed_addr #2 {
  %4 = alloca ptr, align 8
  %5 = alloca ptr, align 8
  %6 = alloca i64, align 8
  %7 = tail call i32 @lua_type(ptr noundef %0, i32 noundef -1) #10
  %8 = icmp eq i32 %7, 5
  %9 = icmp eq i32 %2, 16
  %or.cond = and i1 %9, %8
  %spec.store.select = select i1 %or.cond, i32 0, i32 %7
  switch i32 %spec.store.select, label %60 [
    i32 4, label %10
    i32 1, label %13
    i32 3, label %40
    i32 5, label %51
  ]

10:                                               ; preds = %3
  call void @llvm.lifetime.start.p0(i64 8, ptr nonnull %6) #10
  %11 = call ptr @lua_tolstring(ptr noundef %0, i32 noundef -1, ptr noundef nonnull %6) #10
  %12 = load i64, ptr %6, align 8, !tbaa !22
  call void @mp_encode_bytes(ptr noundef %0, ptr noundef %1, ptr noundef %11, i64 noundef %12)
  call void @llvm.lifetime.end.p0(i64 8, ptr nonnull %6) #10
  br label %mp_encode_lua_number.exit

13:                                               ; preds = %3
  %14 = tail call i32 @lua_toboolean(ptr noundef %0, i32 noundef -1) #10
  %15 = getelementptr inbounds nuw i8, ptr %1, i64 16
  %16 = load i64, ptr %15, align 8, !tbaa !11
  %17 = icmp eq i64 %16, 0
  br i1 %17, label %18, label %._crit_edge.i.i

._crit_edge.i.i:                                  ; preds = %13
  %.pre.i.i = load ptr, ptr %1, align 8, !tbaa !15
  %.phi.trans.insert.i.i = getelementptr inbounds nuw i8, ptr %1, i64 8
  %.pre28.i.i = load i64, ptr %.phi.trans.insert.i.i, align 8, !tbaa !16
  br label %mp_encode_lua_bool.exit

18:                                               ; preds = %13
  %19 = getelementptr inbounds nuw i8, ptr %1, i64 8
  %20 = load i64, ptr %19, align 8, !tbaa !16
  %or.cond.i.i = icmp ugt i64 %20, 9223372036854775805
  br i1 %or.cond.i.i, label %21, label %22

21:                                               ; preds = %18
  tail call void @abort() #11
  unreachable

22:                                               ; preds = %18
  %23 = shl nuw i64 %20, 1
  %24 = add nuw i64 %23, 2
  %25 = load ptr, ptr %1, align 8, !tbaa !15
  call void @llvm.lifetime.start.p0(i64 8, ptr nonnull %5) #10
  %26 = call ptr @lua_getallocf(ptr noundef %0, ptr noundef nonnull %5) #10
  %27 = load ptr, ptr %5, align 8, !tbaa !9
  %28 = call ptr %26(ptr noundef %27, ptr noundef %25, i64 noundef %20, i64 noundef %24) #10
  call void @llvm.lifetime.end.p0(i64 8, ptr nonnull %5) #10
  store ptr %28, ptr %1, align 8, !tbaa !15
  %29 = load i64, ptr %19, align 8, !tbaa !16
  %30 = sub i64 %24, %29
  store i64 %30, ptr %15, align 8, !tbaa !11
  br label %mp_encode_lua_bool.exit

mp_encode_lua_bool.exit:                          ; preds = %._crit_edge.i.i, %22
  %31 = phi i64 [ %.pre28.i.i, %._crit_edge.i.i ], [ %29, %22 ]
  %32 = phi ptr [ %.pre.i.i, %._crit_edge.i.i ], [ %28, %22 ]
  %.not.i = icmp eq i32 %14, 0
  %33 = select i1 %.not.i, i8 -62, i8 -61
  %34 = getelementptr inbounds nuw i8, ptr %1, i64 8
  %35 = getelementptr inbounds nuw i8, ptr %32, i64 %31
  store i8 %33, ptr %35, align 1
  %36 = load i64, ptr %34, align 8, !tbaa !16
  %37 = add i64 %36, 1
  store i64 %37, ptr %34, align 8, !tbaa !16
  %38 = load i64, ptr %15, align 8, !tbaa !11
  %39 = add i64 %38, -1
  store i64 %39, ptr %15, align 8, !tbaa !11
  br label %mp_encode_lua_number.exit

40:                                               ; preds = %3
  %41 = tail call double @lua_tonumber(ptr noundef %0, i32 noundef -1) #10
  %42 = tail call double @llvm.fabs.f64(double %41) #12
  %43 = fcmp oeq double %42, 0x7FF0000000000000
  br i1 %43, label %50, label %44

44:                                               ; preds = %40
  %45 = fptosi double %41 to i64
  %46 = sitofp i64 %45 to double
  %47 = fcmp oeq double %41, %46
  br i1 %47, label %48, label %50

48:                                               ; preds = %44
  %49 = tail call i64 @lua_tointeger(ptr noundef %0, i32 noundef -1) #10
  tail call void @mp_encode_int(ptr noundef %0, ptr noundef %1, i64 noundef %49)
  br label %mp_encode_lua_number.exit

50:                                               ; preds = %44, %40
  tail call void @mp_encode_double(ptr noundef %0, ptr noundef %1, double noundef %41)
  br label %mp_encode_lua_number.exit

51:                                               ; preds = %3
  %52 = tail call i32 @table_is_an_array(ptr noundef %0)
  %.not.i16 = icmp eq i32 %52, 0
  br i1 %.not.i16, label %59, label %53

53:                                               ; preds = %51
  %54 = tail call i64 @lua_objlen(ptr noundef %0, i32 noundef -1) #10
  tail call void @mp_encode_array(ptr noundef %0, ptr noundef %1, i64 noundef %54)
  tail call void @luaL_checkstack(ptr noundef %0, i32 noundef 1, ptr noundef nonnull @.str) #10
  %.not.i2223 = icmp eq i64 %54, 0
  br i1 %.not.i2223, label %mp_encode_lua_number.exit, label %.lr.ph

.lr.ph:                                           ; preds = %53
  %55 = add nsw i32 %2, 1
  br label %56

56:                                               ; preds = %.lr.ph, %56
  %.0.i24 = phi i64 [ 1, %.lr.ph ], [ %58, %56 ]
  %57 = uitofp i64 %.0.i24 to double
  tail call void @lua_pushnumber(ptr noundef %0, double noundef %57) #10
  tail call void @lua_gettable(ptr noundef %0, i32 noundef -2) #10
  tail call void @mp_encode_lua_type(ptr noundef %0, ptr noundef %1, i32 noundef %55)
  %58 = add i64 %.0.i24, 1
  %.not.i22 = icmp ugt i64 %58, %54
  br i1 %.not.i22, label %mp_encode_lua_number.exit, label %56, !llvm.loop !23

59:                                               ; preds = %51
  tail call void @mp_encode_lua_table_as_map(ptr noundef %0, ptr noundef %1, i32 noundef %2)
  br label %mp_encode_lua_number.exit

60:                                               ; preds = %3
  %61 = getelementptr inbounds nuw i8, ptr %1, i64 16
  %62 = load i64, ptr %61, align 8, !tbaa !11
  %63 = icmp eq i64 %62, 0
  br i1 %63, label %64, label %._crit_edge.i.i17

._crit_edge.i.i17:                                ; preds = %60
  %.pre.i.i18 = load ptr, ptr %1, align 8, !tbaa !15
  %.phi.trans.insert.i.i19 = getelementptr inbounds nuw i8, ptr %1, i64 8
  %.pre28.i.i20 = load i64, ptr %.phi.trans.insert.i.i19, align 8, !tbaa !16
  br label %mp_encode_lua_null.exit

64:                                               ; preds = %60
  %65 = getelementptr inbounds nuw i8, ptr %1, i64 8
  %66 = load i64, ptr %65, align 8, !tbaa !16
  %or.cond.i.i21 = icmp ugt i64 %66, 9223372036854775805
  br i1 %or.cond.i.i21, label %67, label %68

67:                                               ; preds = %64
  tail call void @abort() #11
  unreachable

68:                                               ; preds = %64
  %69 = shl nuw i64 %66, 1
  %70 = add nuw i64 %69, 2
  %71 = load ptr, ptr %1, align 8, !tbaa !15
  call void @llvm.lifetime.start.p0(i64 8, ptr nonnull %4) #10
  %72 = call ptr @lua_getallocf(ptr noundef %0, ptr noundef nonnull %4) #10
  %73 = load ptr, ptr %4, align 8, !tbaa !9
  %74 = call ptr %72(ptr noundef %73, ptr noundef %71, i64 noundef %66, i64 noundef %70) #10
  call void @llvm.lifetime.end.p0(i64 8, ptr nonnull %4) #10
  store ptr %74, ptr %1, align 8, !tbaa !15
  %75 = load i64, ptr %65, align 8, !tbaa !16
  %76 = sub i64 %70, %75
  store i64 %76, ptr %61, align 8, !tbaa !11
  br label %mp_encode_lua_null.exit

mp_encode_lua_null.exit:                          ; preds = %._crit_edge.i.i17, %68
  %77 = phi i64 [ %.pre28.i.i20, %._crit_edge.i.i17 ], [ %75, %68 ]
  %78 = phi ptr [ %.pre.i.i18, %._crit_edge.i.i17 ], [ %74, %68 ]
  %79 = getelementptr inbounds nuw i8, ptr %1, i64 8
  %80 = getelementptr inbounds nuw i8, ptr %78, i64 %77
  store i8 -64, ptr %80, align 1
  %81 = load i64, ptr %79, align 8, !tbaa !16
  %82 = add i64 %81, 1
  store i64 %82, ptr %79, align 8, !tbaa !16
  %83 = load i64, ptr %61, align 8, !tbaa !11
  %84 = add i64 %83, -1
  store i64 %84, ptr %61, align 8, !tbaa !11
  br label %mp_encode_lua_number.exit

mp_encode_lua_number.exit:                        ; preds = %56, %53, %59, %50, %48, %mp_encode_lua_null.exit, %mp_encode_lua_bool.exit, %10
  call void @lua_settop(ptr noundef %0, i32 noundef -2) #10
  ret void
}